target datalayout = "e-m:e-p270:32:32-p271:32:32-p272:64:64-i64:64-i128:128-f80:128-n8:16:32:64-S128"
target triple = "x86_64-pc-linux-gnu"

; Function Attrs: nounwind uwtable
define internal ptr @mi_heap_malloc_zero_no_guarded(ptr noundef %0, i64 noundef %1, i1 noundef zeroext %2) #0 {
  %4 = alloca ptr, align 8
  %5 = alloca i64, align 8
  %6 = alloca i8, align 1
  store ptr %0, ptr %4, align 8, !tbaa !3
  store i64 %1, ptr %5, align 8, !tbaa !8
  %7 = zext i1 %2 to i8
  store i8 %7, ptr %6, align 1, !tbaa !10
  %8 = load ptr, ptr %4, align 8, !tbaa !3
  %9 = load i64, ptr %5, align 8, !tbaa !8
  %10 = load i8, ptr %6, align 1, !tbaa !10, !range !19, !noundef !20
  %11 = trunc i8 %10 to i1
  %12 = call ptr @_mi_heap_malloc_zero(ptr noundef %8, i64 noundef %9, i1 noundef zeroext %11) #10
  ret ptr %12
}

; Function Attrs: nounwind uwtable
define internal zeroext i1 @mi_malloc_is_naturally_aligned(i64 noundef %0, i64 noundef %1) #0 {
  %3 = alloca i1, align 1
  %4 = alloca i64, align 8
  %5 = alloca i64, align 8
  %6 = alloca i64, align 8
  store i64 %0, ptr %4, align 8, !tbaa !8
  store i64 %1, ptr %5, align 8, !tbaa !8
  %7 = load i64, ptr %5, align 8, !tbaa !8
  %8 = load i64, ptr %4, align 8, !tbaa !8
  %9 = icmp ugt i64 %7, %8
  br i1 %9, label %10, label %11

10:                                               ; preds = %2
  store i1 false, ptr %3, align 1
  br label %28

11:                                               ; preds = %2
  %12 = load i64, ptr %5, align 8, !tbaa !8
  %13 = icmp ule i64 %12, 16
  br i1 %13, label %14, label %15

14:                                               ; preds = %11
  store i1 true, ptr %3, align 1
  br label %28

15:                                               ; preds = %11
  call void @llvm.lifetime.start.p0(i64 8, ptr %6) #11
  %16 = load i64, ptr %4, align 8, !tbaa !8
  %17 = call i64 @mi_good_size(i64 noundef %16) #10
  store i64 %17, ptr %6, align 8, !tbaa !8
  %18 = load i64, ptr %6, align 8, !tbaa !8
  %19 = icmp ule i64 %18, 65536
  br i1 %19, label %20, label %26

20:                                               ; preds = %15
  %21 = load i64, ptr %6, align 8, !tbaa !8
  %22 = load i64, ptr %5, align 8, !tbaa !8
  %23 = sub i64 %22, 1
  %24 = and i64 %21, %23
  %25 = icmp eq i64 %24, 0
  br label %26

26:                                               ; preds = %20, %15
  %27 = phi i1 [ false, %15 ], [ %25, %20 ]
  store i1 %27, ptr %3, align 1
  call void @llvm.lifetime.end.p0(i64 8, ptr %6) #11
  br label %28

28:                                               ; preds = %26, %14, %10
  %29 = load i1, ptr %3, align 1
  ret i1 %29
}

; Function Attrs: noinline nounwind uwtable
define internal ptr @mi_heap_malloc_zero_aligned_at_generic(ptr noundef %0, i64 noundef %1, i64 noundef %2, i64 noundef %3, i1 noundef zeroext %4) #5 {
  %6 = alloca ptr, align 8
  %7 = alloca ptr, align 8
  %8 = alloca i64, align 8
  %9 = alloca i64, align 8
  %10 = alloca i64, align 8
  %11 = alloca i8, align 1
  %12 = alloca ptr, align 8
  %13 = alloca i8, align 1
  %14 = alloca i32, align 4
  store ptr %0, ptr %7, align 8, !tbaa !3
  store i64 %1, ptr %8, align 8, !tbaa !8
  store i64 %2, ptr %9, align 8, !tbaa !8
  store i64 %3, ptr %10, align 8, !tbaa !8
  %15 = zext i1 %4 to i8
  store i8 %15, ptr %11, align 1, !tbaa !10
  %16 = load i64, ptr %8, align 8, !tbaa !8
  %17 = icmp ugt i64 %16, 9223372036854775807
  %18 = xor i1 %17, true
  %19 = xor i1 %18, true
  %20 = zext i1 %19 to i32
  %21 = sext i32 %20 to i64
  %22 = call i64 @llvm.expect.i64(i64 %21, i64 0)
  %23 = icmp ne i64 %22, 0
  br i1 %23, label %24, label %25

24:                                               ; preds = %5
  store ptr null, ptr %6, align 8
  br label %69

25:                                               ; preds = %5
  %26 = load i64, ptr %10, align 8, !tbaa !8
  %27 = icmp eq i64 %26, 0
  br i1 %27, label %28, label %61

28:                                               ; preds = %25
  %29 = load i64, ptr %8, align 8, !tbaa !8
  %30 = load i64, ptr %9, align 8, !tbaa !8
  %31 = call zeroext i1 @mi_malloc_is_naturally_aligned(i64 noundef %29, i64 noundef %30) #10
  br i1 %31, label %32, label %61

32:                                               ; preds = %28
  call void @llvm.lifetime.start.p0(i64 8, ptr %12) #11
  %33 = load ptr, ptr %7, align 8, !tbaa !3
  %34 = load i64, ptr %8, align 8, !tbaa !8
  %35 = load i8, ptr %11, align 1, !tbaa !10, !range !19, !noundef !20
  %36 = trunc i8 %35 to i1
  %37 = call ptr @mi_heap_malloc_zero_no_guarded(ptr noundef %33, i64 noundef %34, i1 noundef zeroext %36) #10
  store ptr %37, ptr %12, align 8, !tbaa !21
  call void @llvm.lifetime.start.p0(i64 1, ptr %13) #11
  %38 = load ptr, ptr %12, align 8, !tbaa !21
  %39 = ptrtoint ptr %38 to i64
  %40 = load i64, ptr %9, align 8, !tbaa !8
  %41 = sub i64 %40, 1
  %42 = and i64 %39, %41
  %43 = icmp eq i64 %42, 0
  %44 = zext i1 %43 to i8
  store i8 %44, ptr %13, align 1, !tbaa !10
  %45 = load i8, ptr %13, align 1, !tbaa !10, !range !19, !noundef !20
  %46 = trunc i8 %45 to i1
  %47 = xor i1 %46, true
  %48 = xor i1 %47, true
  %49 = zext i1 %48 to i32
  %50 = sext i32 %49 to i64
  %51 = call i64 @llvm.expect.i64(i64 %50, i64 1)
  %52 = icmp ne i64 %51, 0
  br i1 %52, label %53, label %55

53:                                               ; preds = %32
  %54 = load ptr, ptr %12, align 8, !tbaa !21
  store ptr %54, ptr %6, align 8
  store i32 1, ptr %14, align 4
  br label %58

55:                                               ; preds = %32
  %56 = load ptr, ptr %12, align 8, !tbaa !21
  call void @mi_free(ptr noundef %56) #10
  br label %57

57:                                               ; preds = %55
  store i32 0, ptr %14, align 4
  br label %58

58:                                               ; preds = %57, %53
  call void @llvm.lifetime.end.p0(i64 1, ptr %13) #11
  call void @llvm.lifetime.end.p0(i64 8, ptr %12) #11
  %59 = load i32, ptr %14, align 4
  switch i32 %59, label %71 [
    i32 0, label %60
    i32 1, label %69
  ]

60:                                               ; preds = %58
  br label %61

61:                                               ; preds = %60, %28, %25
  %62 = load ptr, ptr %7, align 8, !tbaa !3
  %63 = load i64, ptr %8, align 8, !tbaa !8
  %64 = load i64, ptr %9, align 8, !tbaa !8
  %65 = load i64, ptr %10, align 8, !tbaa !8
  %66 = load i8, ptr %11, align 1, !tbaa !10, !range !19, !noundef !20
  %67 = trunc i8 %66 to i1
  %68 = call ptr @mi_heap_malloc_zero_aligned_at_overalloc(ptr noundef %62, i64 noundef %63, i64 noundef %64, i64 noundef %65, i1 noundef zeroext %67) #10
  store ptr %68, ptr %6, align 8
  br label %69

69:                                               ; preds = %61, %58, %24
  %70 = load ptr, ptr %6, align 8
  ret ptr %70

71:                                               ; preds = %58
  unreachable
}